ccopy_reg
_reconstructor
p1
(csklearn.preprocessing.label
LabelEncoder
p2
c__builtin__
object
p3
NtRp4
(dp5
S'classes_'
p6
cnumpy.core.multiarray
_reconstruct
p7
(cnumpy
ndarray
p8
(I0
tS'b'
tRp9
(I1
(I74
tcnumpy
dtype
p10
(S'S1'
I0
I1
tRp11
(I3
S'|'
NNNI1
I1
I0
tbI00
S'!#%()*,-./0123456789:;=ABCDEFGHIJKLMNOPQRSTUVWXYZabcdefghijklmnoprstuvwxyz'
tbsb.